; ModuleID = '41/969.cpp'
source_filename = "41/969.cpp"
target datalayout = "e-m:e-p270:32:32-p271:32:32-p272:64:64-i64:64-f80:128-n8:16:32:64-S128"
target triple = "x86_64-pc-linux-gnu"

%"class.std::ios_base::Init" = type { i8 }
%"class.std::basic_ostream" = type { i32 (...)**, %"class.std::basic_ios" }
%"class.std::basic_ios" = type { %"class.std::ios_base", %"class.std::basic_ostream"*, i8, i8, %"class.std::basic_streambuf"*, %"class.std::ctype"*, %"class.std::num_put"*, %"class.std::num_get"* }
%"class.std::ios_base" = type { i32 (...)**, i64, i64, i32, i32, i32, %"struct.std::ios_base::_Callback_list"*, %"struct.std::ios_base::_Words", [8 x %"struct.std::ios_base::_Words"], i32, %"struct.std::ios_base::_Words"*, %"class.std::locale" }
%"struct.std::ios_base::_Callback_list" = type { %"struct.std::ios_base::_Callback_list"*, void (i32, %"class.std::ios_base"*, i32)*, i32, i32 }
%"struct.std::ios_base::_Words" = type { i8*, i64 }
%"class.std::locale" = type { %"class.std::locale::_Impl"* }
%"class.std::locale::_Impl" = type { i32, %"class.std::locale::facet"**, i64, %"class.std::locale::facet"**, i8** }
%"class.std::locale::facet" = type <{ i32 (...)**, i32, [4 x i8] }>
%"class.std::basic_streambuf" = type { i32 (...)**, i8*, i8*, i8*, i8*, i8*, i8*, %"class.std::locale" }
%"class.std::ctype" = type <{ %"class.std::locale::facet.base", [4 x i8], %struct.__locale_struct*, i8, [7 x i8], i32*, i32*, i16*, i8, [256 x i8], [256 x i8], i8, [6 x i8] }>
%"class.std::locale::facet.base" = type <{ i32 (...)**, i32 }>
%struct.__locale_struct = type { [13 x %struct.__locale_data*], i16*, i32*, i32*, [13 x i8*] }
%struct.__locale_data = type opaque
%"class.std::num_put" = type { %"class.std::locale::facet.base", [4 x i8] }
%"class.std::num_get" = type { %"class.std::locale::facet.base", [4 x i8] }

@_ZStL8__ioinit = internal global %"class.std::ios_base::Init" zeroinitializer, align 1
@__dso_handle = external hidden global i8
@_ZSt4cout = external dso_local global %"class.std::basic_ostream", align 8
@llvm.global_ctors = appending global [1 x { i32, void ()*, i8* }] [{ i32, void ()*, i8* } { i32 65535, void ()* @_GLOBAL__sub_I_969.cpp, i8* null }]

; Function Attrs: noinline uwtable
define internal void @__cxx_global_var_init() #0 section ".text.startup" {
  call void @_ZNSt8ios_base4InitC1Ev(%"class.std::ios_base::Init"* @_ZStL8__ioinit)
  %1 = call i32 @__cxa_atexit(void (i8*)* bitcast (void (%"class.std::ios_base::Init"*)* @_ZNSt8ios_base4InitD1Ev to void (i8*)*), i8* getelementptr inbounds (%"class.std::ios_base::Init", %"class.std::ios_base::Init"* @_ZStL8__ioinit, i32 0, i32 0), i8* @__dso_handle) #3
  ret void
}

declare dso_local void @_ZNSt8ios_base4InitC1Ev(%"class.std::ios_base::Init"*) unnamed_addr #1

; Function Attrs: nounwind
declare dso_local void @_ZNSt8ios_base4InitD1Ev(%"class.std::ios_base::Init"*) unnamed_addr #2

; Function Attrs: nounwind
declare dso_local i32 @__cxa_atexit(void (i8*)*, i8*, i8*) #3

; Function Attrs: noinline norecurse uwtable
define dso_local i32 @main() #4 {
  %1 = alloca i32, align 4
  %2 = alloca i32, align 4
  %3 = alloca i32, align 4
  %4 = alloca i32, align 4
  %5 = alloca i32, align 4
  %6 = alloca i32, align 4
  %7 = alloca i32, align 4
  %8 = alloca i32, align 4
  %9 = alloca i32, align 4
  %10 = alloca i32, align 4
  %11 = alloca i32, align 4
  %12 = alloca i32, align 4
  %13 = alloca i32, align 4
  store i32 0, i32* %1, align 4
  store i32 1, i32* %2, align 4
  br label %14

14:                                               ; preds = %178, %0
  %15 = load i32, i32* %2, align 4
  %16 = icmp sle i32 %15, 5
  br i1 %16, label %17, label %181

17:                                               ; preds = %14
  store i32 1, i32* %3, align 4
  br label %18

18:                                               ; preds = %174, %17
  %19 = load i32, i32* %3, align 4
  %20 = icmp sle i32 %19, 5
  br i1 %20, label %21, label %177

21:                                               ; preds = %18
  store i32 1, i32* %4, align 4
  br label %22

22:                                               ; preds = %170, %21
  %23 = load i32, i32* %4, align 4
  %24 = icmp sle i32 %23, 5
  br i1 %24, label %25, label %173

25:                                               ; preds = %22
  store i32 1, i32* %5, align 4
  br label %26

26:                                               ; preds = %166, %25
  %27 = load i32, i32* %5, align 4
  %28 = icmp sle i32 %27, 5
  br i1 %28, label %29, label %169

29:                                               ; preds = %26
  store i32 1, i32* %6, align 4
  br label %30

30:                                               ; preds = %162, %29
  %31 = load i32, i32* %6, align 4
  %32 = icmp sle i32 %31, 5
  br i1 %32, label %33, label %165

33:                                               ; preds = %30
  %34 = load i32, i32* %2, align 4
  %35 = load i32, i32* %3, align 4
  %36 = sub nsw i32 %34, %35
  %37 = load i32, i32* %3, align 4
  %38 = load i32, i32* %4, align 4
  %39 = sub nsw i32 %37, %38
  %40 = mul nsw i32 %36, %39
  %41 = load i32, i32* %4, align 4
  %42 = load i32, i32* %5, align 4
  %43 = sub nsw i32 %41, %42
  %44 = mul nsw i32 %40, %43
  %45 = load i32, i32* %5, align 4
  %46 = load i32, i32* %6, align 4
  %47 = sub nsw i32 %45, %46
  %48 = mul nsw i32 %44, %47
  %49 = load i32, i32* %6, align 4
  %50 = load i32, i32* %2, align 4
  %51 = sub nsw i32 %49, %50
  %52 = mul nsw i32 %48, %51
  %53 = load i32, i32* %2, align 4
  %54 = load i32, i32* %4, align 4
  %55 = sub nsw i32 %53, %54
  %56 = mul nsw i32 %52, %55
  %57 = load i32, i32* %2, align 4
  %58 = load i32, i32* %5, align 4
  %59 = sub nsw i32 %57, %58
  %60 = mul nsw i32 %56, %59
  %61 = load i32, i32* %3, align 4
  %62 = load i32, i32* %5, align 4
  %63 = sub nsw i32 %61, %62
  %64 = mul nsw i32 %60, %63
  %65 = load i32, i32* %3, align 4
  %66 = load i32, i32* %6, align 4
  %67 = sub nsw i32 %65, %66
  %68 = mul nsw i32 %64, %67
  %69 = load i32, i32* %4, align 4
  %70 = load i32, i32* %6, align 4
  %71 = sub nsw i32 %69, %70
  %72 = mul nsw i32 %68, %71
  %73 = icmp ne i32 %72, 0
  %74 = zext i1 %73 to i32
  store i32 %74, i32* %12, align 4
  %75 = load i32, i32* %6, align 4
  %76 = icmp ne i32 %75, 2
  br i1 %76, label %77, label %80

77:                                               ; preds = %33
  %78 = load i32, i32* %6, align 4
  %79 = icmp ne i32 %78, 3
  br label %80

80:                                               ; preds = %77, %33
  %81 = phi i1 [ false, %33 ], [ %79, %77 ]
  %82 = zext i1 %81 to i32
  store i32 %82, i32* %13, align 4
  %83 = load i32, i32* %6, align 4
  %84 = icmp eq i32 %83, 1
  %85 = zext i1 %84 to i32
  store i32 %85, i32* %7, align 4
  %86 = load i32, i32* %3, align 4
  %87 = icmp eq i32 %86, 2
  %88 = zext i1 %87 to i32
  store i32 %88, i32* %8, align 4
  %89 = load i32, i32* %2, align 4
  %90 = icmp eq i32 %89, 5
  %91 = zext i1 %90 to i32
  store i32 %91, i32* %9, align 4
  %92 = load i32, i32* %4, align 4
  %93 = icmp ne i32 %92, 1
  %94 = zext i1 %93 to i32
  store i32 %94, i32* %10, align 4
  %95 = load i32, i32* %5, align 4
  %96 = icmp eq i32 %95, 1
  %97 = zext i1 %96 to i32
  store i32 %97, i32* %11, align 4
  %98 = load i32, i32* %2, align 4
  %99 = load i32, i32* %7, align 4
  %100 = mul nsw i32 %98, %99
  %101 = load i32, i32* %3, align 4
  %102 = load i32, i32* %8, align 4
  %103 = mul nsw i32 %101, %102
  %104 = add nsw i32 %100, %103
  %105 = load i32, i32* %4, align 4
  %106 = load i32, i32* %9, align 4
  %107 = mul nsw i32 %105, %106
  %108 = add nsw i32 %104, %107
  %109 = load i32, i32* %5, align 4
  %110 = load i32, i32* %10, align 4
  %111 = mul nsw i32 %109, %110
  %112 = add nsw i32 %108, %111
  %113 = load i32, i32* %6, align 4
  %114 = load i32, i32* %11, align 4
  %115 = mul nsw i32 %113, %114
  %116 = add nsw i32 %112, %115
  %117 = icmp eq i32 %116, 3
  br i1 %117, label %118, label %161

118:                                              ; preds = %80
  %119 = load i32, i32* %2, align 4
  %120 = load i32, i32* %7, align 4
  %121 = sub nsw i32 %119, %120
  %122 = load i32, i32* %3, align 4
  %123 = load i32, i32* %8, align 4
  %124 = sub nsw i32 %122, %123
  %125 = mul nsw i32 %121, %124
  %126 = load i32, i32* %4, align 4
  %127 = load i32, i32* %9, align 4
  %128 = sub nsw i32 %126, %127
  %129 = mul nsw i32 %125, %128
  %130 = load i32, i32* %5, align 4
  %131 = load i32, i32* %10, align 4
  %132 = sub nsw i32 %130, %131
  %133 = mul nsw i32 %129, %132
  %134 = load i32, i32* %6, align 4
  %135 = load i32, i32* %11, align 4
  %136 = sub nsw i32 %134, %135
  %137 = mul nsw i32 %133, %136
  %138 = icmp eq i32 %137, 0
  br i1 %138, label %139, label %161

139:                                              ; preds = %118
  %140 = load i32, i32* %12, align 4
  %141 = icmp ne i32 %140, 0
  br i1 %141, label %142, label %161

142:                                              ; preds = %139
  %143 = load i32, i32* %13, align 4
  %144 = icmp ne i32 %143, 0
  br i1 %144, label %145, label %161

145:                                              ; preds = %142
  %146 = load i32, i32* %2, align 4
  %147 = call dereferenceable(272) %"class.std::basic_ostream"* @_ZNSolsEi(%"class.std::basic_ostream"* @_ZSt4cout, i32 %146)
  %148 = call dereferenceable(272) %"class.std::basic_ostream"* @_ZStlsISt11char_traitsIcEERSt13basic_ostreamIcT_ES5_c(%"class.std::basic_ostream"* dereferenceable(272) %147, i8 signext 32)
  %149 = load i32, i32* %3, align 4
  %150 = call dereferenceable(272) %"class.std::basic_ostream"* @_ZNSolsEi(%"class.std::basic_ostream"* %148, i32 %149)
  %151 = call dereferenceable(272) %"class.std::basic_ostream"* @_ZStlsISt11char_traitsIcEERSt13basic_ostreamIcT_ES5_c(%"class.std::basic_ostream"* dereferenceable(272) %150, i8 signext 32)
  %152 = load i32, i32* %4, align 4
  %153 = call dereferenceable(272) %"class.std::basic_ostream"* @_ZNSolsEi(%"class.std::basic_ostream"* %151, i32 %152)
  %154 = call dereferenceable(272) %"class.std::basic_ostream"* @_ZStlsISt11char_traitsIcEERSt13basic_ostreamIcT_ES5_c(%"class.std::basic_ostream"* dereferenceable(272) %153, i8 signext 32)
  %155 = load i32, i32* %5, align 4
  %156 = call dereferenceable(272) %"class.std::basic_ostream"* @_ZNSolsEi(%"class.std::basic_ostream"* %154, i32 %155)
  %157 = call dereferenceable(272) %"class.std::basic_ostream"* @_ZStlsISt11char_traitsIcEERSt13basic_ostreamIcT_ES5_c(%"class.std::basic_ostream"* dereferenceable(272) %156, i8 signext 32)
  %158 = load i32, i32* %6, align 4
  %159 = call dereferenceable(272) %"class.std::basic_ostream"* @_ZNSolsEi(%"class.std::basic_ostream"* %157, i32 %158)
  %160 = call dereferenceable(272) %"class.std::basic_ostream"* @_ZNSolsEPFRSoS_E(%"class.std::basic_ostream"* %159, %"class.std::basic_ostream"* (%"class.std::basic_ostream"*)* @_ZSt4endlIcSt11char_traitsIcEERSt13basic_ostreamIT_T0_ES6_)
  br label %161

161:                                              ; preds = %145, %142, %139, %118, %80
  br label %162

162:                                              ; preds = %161
  %163 = load i32, i32* %6, align 4
  %164 = add nsw i32 %163, 1
  store i32 %164, i32* %6, align 4
  br label %30

165:                                              ; preds = %30
  br label %166

166:                                              ; preds = %165
  %167 = load i32, i32* %5, align 4
  %168 = add nsw i32 %167, 1
  store i32 %168, i32* %5, align 4
  br label %26

169:                                              ; preds = %26
  br label %170

170:                                              ; preds = %169
  %171 = load i32, i32* %4, align 4
  %172 = add nsw i32 %171, 1
  store i32 %172, i32* %4, align 4
  br label %22

173:                                              ; preds = %22
  br label %174

174:                                              ; preds = %173
  %175 = load i32, i32* %3, align 4
  %176 = add nsw i32 %175, 1
  store i32 %176, i32* %3, align 4
  br label %18

177:                                              ; preds = %18
  br label %178

178:                                              ; preds = %177
  %179 = load i32, i32* %2, align 4
  %180 = add nsw i32 %179, 1
  store i32 %180, i32* %2, align 4
  br label %14

181:                                              ; preds = %14
  ret i32 0
}

declare dso_local dereferenceable(272) %"class.std::basic_ostream"* @_ZStlsISt11char_traitsIcEERSt13basic_ostreamIcT_ES5_c(%"class.std::basic_ostream"* dereferenceable(272), i8 signext) #1

declare dso_local dereferenceable(272) %"class.std::basic_ostream"* @_ZNSolsEi(%"class.std::basic_ostream"*, i32) #1

declare dso_local dereferenceable(272) %"class.std::basic_ostream"* @_ZNSolsEPFRSoS_E(%"class.std::basic_ostream"*, %"class.std::basic_ostream"* (%"class.std::basic_ostream"*)*) #1

declare dso_local dereferenceable(272) %"class.std::basic_ostream"* @_ZSt4endlIcSt11char_traitsIcEERSt13basic_ostreamIT_T0_ES6_(%"class.std::basic_ostream"* dereferenceable(272)) #1

; Function Attrs: noinline uwtable
define internal void @_GLOBAL__sub_I_969.cpp() #0 section ".text.startup" {
  call void @__cxx_global_var_init()
  ret void
}


!llvm.module.flags = !{!0}
!llvm.ident = !{!1}

!0 = !{i32 1, !"wchar_size", i32 4}
!1 = !{!"clang version 10.0.0-4ubuntu1 "}
